target datalayout = "e-m:e-p270:32:32-p271:32:32-p272:64:64-i64:64-i128:128-f80:128-n8:16:32:64-S128"
target triple = "x86_64-pc-linux-gnu"

%struct.pg_conn = type { ptr, ptr, ptr, ptr, ptr, ptr, ptr, ptr, ptr, ptr, ptr, ptr, ptr, ptr, ptr, ptr, ptr, ptr, ptr, ptr, ptr, ptr, ptr, ptr, ptr, ptr, ptr, ptr, ptr, ptr, ptr, ptr, ptr, ptr, ptr, ptr, ptr, ptr, ptr, ptr, ptr, ptr, ptr, i8, ptr, i32, %struct.PGNoticeHooks, ptr, i32, i32, i32, i32, i32, [6 x i8], i8, i8, i32, i8, i8, i32, i8, i32, ptr, ptr, i32, i32, ptr, ptr, ptr, ptr, ptr, i32, %struct.SockAddr, %struct.SockAddr, i32, i32, i8, i8, i8, i8, i8, i8, ptr, i8, i32, [1 x ptr], i8, i8, ptr, ptr, i32, i32, i32, i8, i8, i32, i32, ptr, i8, i64, ptr, i64, ptr, i32, i32, ptr, i32, i8, i32, i32, i32, i32, ptr, %struct.pg_prng_state, ptr, i32, i32, i32, i32, ptr, i32, i32, i32, i32, ptr, i32, ptr, i8, ptr, ptr, ptr, i32, i8, i8, i8, i8, i8, i8, i8, i8, %struct.PQExpBufferData, i32, %struct.PQExpBufferData }
%struct.PGNoticeHooks = type { ptr, ptr, ptr, ptr }
%struct.SockAddr = type { %struct.sockaddr_storage, i32 }
%struct.sockaddr_storage = type { i16, [118 x i8], i64 }
%struct.pg_prng_state = type { i64, i64 }
%struct.PQExpBufferData = type { ptr, i64, i64 }
%struct.pg_result = type { i32, i32, ptr, ptr, i32, i32, ptr, i32, [64 x i8], i32, %struct.PGNoticeHooks, ptr, i32, i32, ptr, ptr, ptr, [1 x i8], ptr, i32, i32, i64 }
%struct.pgresAttDesc = type { ptr, i32, i32, i32, i32, i32, i32 }

; Function Attrs: nounwind uwtable
define internal i32 @getCopyStart(ptr noundef %0, i32 noundef %1) #0 {
  %3 = alloca i32, align 4
  %4 = alloca ptr, align 8
  %5 = alloca i32, align 4
  %6 = alloca ptr, align 8
  %7 = alloca i32, align 4
  %8 = alloca i32, align 4
  %9 = alloca ptr, align 8
  %10 = alloca i32, align 4
  %11 = alloca i64, align 8
  %12 = alloca ptr, align 8
  %13 = alloca ptr, align 8
  %14 = alloca i32, align 4
  %15 = alloca i32, align 4
  store ptr %0, ptr %4, align 8
  store i32 %1, ptr %5, align 4
  call void @llvm.lifetime.start.p0(i64 8, ptr %6) #11
  call void @llvm.lifetime.start.p0(i64 4, ptr %7) #11
  call void @llvm.lifetime.start.p0(i64 4, ptr %8) #11
  %16 = load ptr, ptr %4, align 8
  %17 = load i32, ptr %5, align 4
  %18 = call ptr @PQmakeEmptyPGresult(ptr noundef %16, i32 noundef %17)
  store ptr %18, ptr %6, align 8
  %19 = load ptr, ptr %6, align 8
  %20 = icmp ne ptr %19, null
  br i1 %20, label %22, label %21

21:                                               ; preds = %2
  br label %136

22:                                               ; preds = %2
  %23 = load ptr, ptr %4, align 8
  %24 = getelementptr inbounds nuw %struct.pg_conn, ptr %23, i32 0, i32 60
  %25 = load ptr, ptr %4, align 8
  %26 = call i32 @pqGetc(ptr noundef %24, ptr noundef %25)
  %27 = icmp ne i32 %26, 0
  br i1 %27, label %28, label %29

28:                                               ; preds = %22
  br label %136

29:                                               ; preds = %22
  %30 = load ptr, ptr %4, align 8
  %31 = getelementptr inbounds nuw %struct.pg_conn, ptr %30, i32 0, i32 60
  %32 = load i8, ptr %31, align 8
  %33 = sext i8 %32 to i32
  %34 = load ptr, ptr %6, align 8
  %35 = getelementptr inbounds nuw %struct.pg_result, ptr %34, i32 0, i32 9
  store i32 %33, ptr %35, align 4
  %36 = load ptr, ptr %6, align 8
  %37 = getelementptr inbounds nuw %struct.pg_result, ptr %36, i32 0, i32 1
  %38 = load ptr, ptr %4, align 8
  %39 = call i32 @pqGetInt(ptr noundef %37, i64 noundef 2, ptr noundef %38)
  %40 = icmp ne i32 %39, 0
  br i1 %40, label %41, label %42

41:                                               ; preds = %29
  br label %136

42:                                               ; preds = %29
  %43 = load ptr, ptr %6, align 8
  %44 = getelementptr inbounds nuw %struct.pg_result, ptr %43, i32 0, i32 1
  %45 = load i32, ptr %44, align 4
  store i32 %45, ptr %7, align 4
  %46 = load i32, ptr %7, align 4
  %47 = icmp sgt i32 %46, 0
  br i1 %47, label %48, label %104

48:                                               ; preds = %42
  %49 = load ptr, ptr %6, align 8
  %50 = load i32, ptr %7, align 4
  %51 = sext i32 %50 to i64
  %52 = mul i64 %51, 32
  %53 = call ptr @pqResultAlloc(ptr noundef %49, i64 noundef %52, i1 noundef zeroext true)
  %54 = load ptr, ptr %6, align 8
  %55 = getelementptr inbounds nuw %struct.pg_result, ptr %54, i32 0, i32 2
  store ptr %53, ptr %55, align 8
  %56 = load ptr, ptr %6, align 8
  %57 = getelementptr inbounds nuw %struct.pg_result, ptr %56, i32 0, i32 2
  %58 = load ptr, ptr %57, align 8
  %59 = icmp ne ptr %58, null
  br i1 %59, label %61, label %60

60:                                               ; preds = %48
  br label %136

61:                                               ; preds = %48
  br label %62

62:                                               ; preds = %61
  call void @llvm.lifetime.start.p0(i64 8, ptr %9) #11
  %63 = load ptr, ptr %6, align 8
  %64 = getelementptr inbounds nuw %struct.pg_result, ptr %63, i32 0, i32 2
  %65 = load ptr, ptr %64, align 8
  store ptr %65, ptr %9, align 8
  call void @llvm.lifetime.start.p0(i64 4, ptr %10) #11
  store i32 0, ptr %10, align 4
  call void @llvm.lifetime.start.p0(i64 8, ptr %11) #11
  %66 = load i32, ptr %7, align 4
  %67 = sext i32 %66 to i64
  %68 = mul i64 %67, 32
  store i64 %68, ptr %11, align 8
  %69 = load ptr, ptr %9, align 8
  %70 = ptrtoint ptr %69 to i64
  %71 = and i64 %70, 7
  %72 = icmp eq i64 %71, 0
  br i1 %72, label %73, label %96

73:                                               ; preds = %62
  %74 = load i64, ptr %11, align 8
  %75 = and i64 %74, 7
  %76 = icmp eq i64 %75, 0
  br i1 %76, label %77, label %96

77:                                               ; preds = %73
  %78 = load i32, ptr %10, align 4
  %79 = icmp eq i32 %78, 0
  br i1 %79, label %80, label %96

80:                                               ; preds = %77
  %81 = load i64, ptr %11, align 8
  %82 = icmp ule i64 %81, 1024
  br i1 %82, label %83, label %96

83:                                               ; preds = %80
  call void @llvm.lifetime.start.p0(i64 8, ptr %12) #11
  %84 = load ptr, ptr %9, align 8
  store ptr %84, ptr %12, align 8
  call void @llvm.lifetime.start.p0(i64 8, ptr %13) #11
  %85 = load ptr, ptr %12, align 8
  %86 = load i64, ptr %11, align 8
  %87 = getelementptr inbounds nuw i8, ptr %85, i64 %86
  store ptr %87, ptr %13, align 8
  br label %88

88:                                               ; preds = %92, %83
  %89 = load ptr, ptr %12, align 8
  %90 = load ptr, ptr %13, align 8
  %91 = icmp ult ptr %89, %90
  br i1 %91, label %92, label %95

92:                                               ; preds = %88
  %93 = load ptr, ptr %12, align 8
  %94 = getelementptr inbounds nuw i64, ptr %93, i32 1
  store ptr %94, ptr %12, align 8
  store i64 0, ptr %93, align 8
  br label %88, !llvm.loop !11

95:                                               ; preds = %88
  call void @llvm.lifetime.end.p0(i64 8, ptr %13) #11
  call void @llvm.lifetime.end.p0(i64 8, ptr %12) #11
  br label %101

96:                                               ; preds = %80, %77, %73, %62
  %97 = load ptr, ptr %9, align 8
  %98 = load i32, ptr %10, align 4
  %99 = trunc i32 %98 to i8
  %100 = load i64, ptr %11, align 8
  call void @llvm.memset.p0.i64(ptr align 1 %97, i8 %99, i64 %100, i1 false)
  br label %101

101:                                              ; preds = %96, %95
  call void @llvm.lifetime.end.p0(i64 8, ptr %11) #11
  call void @llvm.lifetime.end.p0(i64 4, ptr %10) #11
  call void @llvm.lifetime.end.p0(i64 8, ptr %9) #11
  br label %102

102:                                              ; preds = %101
  br label %103

103:                                              ; preds = %102
  br label %104

104:                                              ; preds = %103, %42
  store i32 0, ptr %8, align 4
  br label %105

105:                                              ; preds = %129, %104
  %106 = load i32, ptr %8, align 4
  %107 = load i32, ptr %7, align 4
  %108 = icmp slt i32 %106, %107
  br i1 %108, label %109, label %132

109:                                              ; preds = %105
  call void @llvm.lifetime.start.p0(i64 4, ptr %14) #11
  %110 = load ptr, ptr %4, align 8
  %111 = call i32 @pqGetInt(ptr noundef %14, i64 noundef 2, ptr noundef %110)
  %112 = icmp ne i32 %111, 0
  br i1 %112, label %113, label %114

113:                                              ; preds = %109
  store i32 2, ptr %15, align 4
  br label %126

114:                                              ; preds = %109
  %115 = load i32, ptr %14, align 4
  %116 = trunc i32 %115 to i16
  %117 = sext i16 %116 to i32
  store i32 %117, ptr %14, align 4
  %118 = load i32, ptr %14, align 4
  %119 = load ptr, ptr %6, align 8
  %120 = getelementptr inbounds nuw %struct.pg_result, ptr %119, i32 0, i32 2
  %121 = load ptr, ptr %120, align 8
  %122 = load i32, ptr %8, align 4
  %123 = sext i32 %122 to i64
  %124 = getelementptr inbounds %struct.pgresAttDesc, ptr %121, i64 %123
  %125 = getelementptr inbounds nuw %struct.pgresAttDesc, ptr %124, i32 0, i32 3
  store i32 %118, ptr %125, align 8
  store i32 0, ptr %15, align 4
  br label %126

126:                                              ; preds = %113, %114
  call void @llvm.lifetime.end.p0(i64 4, ptr %14) #11
  %127 = load i32, ptr %15, align 4
  switch i32 %127, label %138 [
    i32 0, label %128
    i32 2, label %136
  ]

128:                                              ; preds = %126
  br label %129

129:                                              ; preds = %128
  %130 = load i32, ptr %8, align 4
  %131 = add i32 %130, 1
  store i32 %131, ptr %8, align 4
  br label %105, !llvm.loop !12

132:                                              ; preds = %105
  %133 = load ptr, ptr %6, align 8
  %134 = load ptr, ptr %4, align 8
  %135 = getelementptr inbounds nuw %struct.pg_conn, ptr %134, i32 0, i32 126
  store ptr %133, ptr %135, align 8
  store i32 0, ptr %3, align 4
  store i32 1, ptr %15, align 4
  br label %138

136:                                              ; preds = %126, %60, %41, %28, %21
  %137 = load ptr, ptr %6, align 8
  call void @PQclear(ptr noundef %137)
  store i32 -1, ptr %3, align 4
  store i32 1, ptr %15, align 4
  br label %138

138:                                              ; preds = %136, %132, %126
  call void @llvm.lifetime.end.p0(i64 4, ptr %8) #11
  call void @llvm.lifetime.end.p0(i64 4, ptr %7) #11
  call void @llvm.lifetime.end.p0(i64 8, ptr %6) #11
  %139 = load i32, ptr %3, align 4
  ret i32 %139
}