; Function Attrs: nounwind uwtable
define internal fastcc range(i32 -1, 1) i32 @getCopyStart(ptr noundef %0, i32 noundef range(i32 3, 9) %1) unnamed_addr #0 {
  %3 = alloca i32, align 4
  %4 = tail call ptr @PQmakeEmptyPGresult(ptr noundef %0, i32 noundef %1) #16
  %.not = icmp eq ptr %4, null
  br i1 %.not, label %44, label %5

5:                                                ; preds = %2
  %6 = getelementptr inbounds nuw i8, ptr %0, i64 448
  %7 = tail call i32 @pqGetc(ptr noundef nonnull %6, ptr noundef %0) #16
  %.not50 = icmp eq i32 %7, 0
  br i1 %.not50, label %8, label %44

8:                                                ; preds = %5
  %9 = load i8, ptr %6, align 8
  %10 = sext i8 %9 to i32
  %11 = getelementptr inbounds nuw i8, ptr %4, i64 108
  store i32 %10, ptr %11, align 4
  %12 = getelementptr inbounds nuw i8, ptr %4, i64 4
  %13 = tail call i32 @pqGetInt(ptr noundef nonnull %12, i64 noundef 2, ptr noundef nonnull %0) #16
  %.not51 = icmp eq i32 %13, 0
  br i1 %.not51, label %14, label %44

14:                                               ; preds = %8
  %15 = load i32, ptr %12, align 4
  %16 = icmp sgt i32 %15, 0
  br i1 %16, label %17, label %._crit_edge

17:                                               ; preds = %14
  %18 = zext nneg i32 %15 to i64
  %19 = shl nuw nsw i64 %18, 5
  %20 = tail call ptr @pqResultAlloc(ptr noundef nonnull %4, i64 noundef %19, i1 noundef zeroext true) #16
  %21 = getelementptr inbounds nuw i8, ptr %4, i64 8
  store ptr %20, ptr %21, align 8
  %.not52 = icmp eq ptr %20, null
  br i1 %.not52, label %44, label %22

22:                                               ; preds = %17
  %23 = ptrtoint ptr %20 to i64
  %24 = and i64 %23, 7
  %25 = icmp eq i64 %24, 0
  %26 = icmp samesign ult i32 %15, 33
  %or.cond = and i1 %26, %25
  br i1 %or.cond, label %.lr.ph.preheader, label %33

.lr.ph.preheader:                                 ; preds = %22
  %27 = add i64 %19, %23
  %28 = add i64 %23, 8
  %umax = tail call i64 @llvm.umax.i64(i64 %27, i64 %28)
  %29 = xor i64 %23, -1
  %30 = add i64 %umax, %29
  %31 = and i64 %30, -8
  %32 = add i64 %31, 8
  tail call void @llvm.memset.p0.i64(ptr nonnull align 8 %20, i8 0, i64 %32, i1 false)
  br label %.lr.ph59

33:                                               ; preds = %22
  tail call void @llvm.memset.p0.i64(ptr nonnull align 1 %20, i8 0, i64 %19, i1 false)
  br label %.lr.ph59

.lr.ph59:                                         ; preds = %.lr.ph.preheader, %33
  %34 = getelementptr inbounds nuw i8, ptr %4, i64 8
  %wide.trip.count = zext nneg i32 %15 to i64
  br label %35

35:                                               ; preds = %.lr.ph59, %38
  %indvars.iv = phi i64 [ 0, %.lr.ph59 ], [ %indvars.iv.next, %38 ]
  call void @llvm.lifetime.start.p0(i64 4, ptr nonnull %3) #16
  %36 = call i32 @pqGetInt(ptr noundef nonnull %3, i64 noundef 2, ptr noundef nonnull %0) #16
  %.not53 = icmp eq i32 %36, 0
  br i1 %.not53, label %38, label %37

37:                                               ; preds = %35
  call void @llvm.lifetime.end.p0(i64 4, ptr nonnull %3) #16
  br label %44

38:                                               ; preds = %35
  %39 = load i32, ptr %3, align 4
  %sext = shl i32 %39, 16
  %40 = ashr exact i32 %sext, 16
  %41 = load ptr, ptr %34, align 8
  %42 = getelementptr inbounds nuw %struct.pgresAttDesc, ptr %41, i64 %indvars.iv, i32 3
  store i32 %40, ptr %42, align 8
  call void @llvm.lifetime.end.p0(i64 4, ptr nonnull %3) #16
  %indvars.iv.next = add nuw nsw i64 %indvars.iv, 1
  %exitcond.not = icmp eq i64 %indvars.iv.next, %wide.trip.count
  br i1 %exitcond.not, label %._crit_edge, label %35, !llvm.loop !9

._crit_edge:                                      ; preds = %38, %14
  %43 = getelementptr inbounds nuw i8, ptr %0, i64 1064
  store ptr %4, ptr %43, align 8
  br label %45

44:                                               ; preds = %37, %17, %8, %5, %2
  call void @PQclear(ptr noundef %4) #16
  br label %45

45:                                               ; preds = %44, %._crit_edge
  %.043 = phi i32 [ -1, %44 ], [ 0, %._crit_edge ]
  ret i32 %.043
}